target datalayout = "e-m:e-p270:32:32-p271:32:32-p272:64:64-i64:64-i128:128-f80:128-n8:16:32:64-S128"
target triple = "x86_64-pc-linux-gnu"

%struct.altsvcinfo = type { ptr, %struct.Curl_llist, i64 }
%struct.Curl_llist = type { ptr, ptr, ptr, i64 }
%struct.altsvc = type { %struct.althost, %struct.althost, i64, i8, i32, %struct.Curl_llist_node }
%struct.althost = type { ptr, i16, i32 }
%struct.Curl_llist_node = type { ptr, ptr, ptr, ptr }
%struct.tm = type { i32, i32, i32, i32, i32, i32, i32, i32, i32, i64, ptr }

@.str = private unnamed_addr constant [3 x i8] c"h1\00", align 1
@.str.1 = private unnamed_addr constant [3 x i8] c"h2\00", align 1
@.str.2 = private unnamed_addr constant [3 x i8] c"h3\00", align 1
@.str.3 = private unnamed_addr constant [1 x i8] zeroinitializer, align 1
@Curl_cfree = external global ptr, align 8
@.str.4 = private unnamed_addr constant [118 x i8] c"# Your alt-svc cache. https://curl.se/docs/alt-svc.html\0A# This file was generated by libcurl! Edit at your own risk.\0A\00", align 1
@.str.14 = private unnamed_addr constant [2 x i8] c"[\00", align 1
@.str.15 = private unnamed_addr constant [2 x i8] c"]\00", align 1
@.str.16 = private unnamed_addr constant [61 x i8] c"%s %s%s%s %u %s %s%s%s %u \22%d%02d%02d %02d:%02d:%02d\22 %u %u\0A\00", align 1

; Function Attrs: nounwind uwtable
define hidden ptr @Curl_alpnid2str(i32 noundef %0) #0 {
  %2 = alloca ptr, align 8
  %3 = alloca i32, align 4
  store i32 %0, ptr %3, align 4, !tbaa !3
  %4 = load i32, ptr %3, align 4, !tbaa !3
  switch i32 %4, label %8 [
    i32 8, label %5
    i32 16, label %6
    i32 32, label %7
  ]

5:                                                ; preds = %1
  store ptr @.str, ptr %2, align 8
  br label %9

6:                                                ; preds = %1
  store ptr @.str.1, ptr %2, align 8
  br label %9

7:                                                ; preds = %1
  store ptr @.str.2, ptr %2, align 8
  br label %9

8:                                                ; preds = %1
  store ptr @.str.3, ptr %2, align 8
  br label %9

9:                                                ; preds = %8, %7, %6, %5
  %10 = load ptr, ptr %2, align 8
  ret ptr %10
}

; Function Attrs: nounwind uwtable
define internal i32 @altsvc_out(ptr noundef %0, ptr noundef %1) #0 {
  %3 = alloca i32, align 4
  %4 = alloca ptr, align 8
  %5 = alloca ptr, align 8
  %6 = alloca %struct.tm, align 8
  %7 = alloca ptr, align 8
  %8 = alloca ptr, align 8
  %9 = alloca ptr, align 8
  %10 = alloca ptr, align 8
  %11 = alloca i32, align 4
  %12 = alloca i32, align 4
  %13 = alloca [16 x i8], align 16
  store ptr %0, ptr %4, align 8, !tbaa !29
  store ptr %1, ptr %5, align 8, !tbaa !19
  call void @llvm.lifetime.start.p0(i64 56, ptr %6) #7
  call void @llvm.lifetime.start.p0(i64 8, ptr %7) #7
  store ptr @.str.3, ptr %7, align 8, !tbaa !17
  call void @llvm.lifetime.start.p0(i64 8, ptr %8) #7
  store ptr @.str.3, ptr %8, align 8, !tbaa !17
  call void @llvm.lifetime.start.p0(i64 8, ptr %9) #7
  store ptr @.str.3, ptr %9, align 8, !tbaa !17
  call void @llvm.lifetime.start.p0(i64 8, ptr %10) #7
  store ptr @.str.3, ptr %10, align 8, !tbaa !17
  call void @llvm.lifetime.start.p0(i64 4, ptr %11) #7
  %14 = load ptr, ptr %4, align 8, !tbaa !29
  %15 = getelementptr inbounds nuw %struct.altsvc, ptr %14, i32 0, i32 2
  %16 = load i64, ptr %15, align 8, !tbaa !43
  %17 = call i32 @Curl_gmtime(i64 noundef %16, ptr noundef %6)
  store i32 %17, ptr %11, align 4, !tbaa !3
  %18 = load i32, ptr %11, align 4, !tbaa !3
  %19 = icmp ne i32 %18, 0
  br i1 %19, label %20, label %22

20:                                               ; preds = %2
  %21 = load i32, ptr %11, align 4, !tbaa !3
  store i32 %21, ptr %3, align 4
  store i32 1, ptr %12, align 4
  br label %98

22:                                               ; preds = %2
  call void @llvm.lifetime.start.p0(i64 16, ptr %13) #7
  %23 = load ptr, ptr %4, align 8, !tbaa !29
  %24 = getelementptr inbounds nuw %struct.altsvc, ptr %23, i32 0, i32 1
  %25 = getelementptr inbounds nuw %struct.althost, ptr %24, i32 0, i32 0
  %26 = load ptr, ptr %25, align 8, !tbaa !39
  %27 = getelementptr inbounds [16 x i8], ptr %13, i64 0, i64 0
  %28 = call i32 @inet_pton(i32 noundef 10, ptr noundef %26, ptr noundef %27) #7
  %29 = icmp eq i32 1, %28
  br i1 %29, label %30, label %31

30:                                               ; preds = %22
  store ptr @.str.14, ptr %7, align 8, !tbaa !17
  store ptr @.str.15, ptr %8, align 8, !tbaa !17
  br label %31

31:                                               ; preds = %30, %22
  %32 = load ptr, ptr %4, align 8, !tbaa !29
  %33 = getelementptr inbounds nuw %struct.altsvc, ptr %32, i32 0, i32 0
  %34 = getelementptr inbounds nuw %struct.althost, ptr %33, i32 0, i32 0
  %35 = load ptr, ptr %34, align 8, !tbaa !32
  %36 = getelementptr inbounds [16 x i8], ptr %13, i64 0, i64 0
  %37 = call i32 @inet_pton(i32 noundef 10, ptr noundef %35, ptr noundef %36) #7
  %38 = icmp eq i32 1, %37
  br i1 %38, label %39, label %40

39:                                               ; preds = %31
  store ptr @.str.14, ptr %9, align 8, !tbaa !17
  store ptr @.str.15, ptr %10, align 8, !tbaa !17
  br label %40

40:                                               ; preds = %39, %31
  call void @llvm.lifetime.end.p0(i64 16, ptr %13) #7
  br label %41

41:                                               ; preds = %40
  %42 = load ptr, ptr %5, align 8, !tbaa !19
  %43 = load ptr, ptr %4, align 8, !tbaa !29
  %44 = getelementptr inbounds nuw %struct.altsvc, ptr %43, i32 0, i32 0
  %45 = getelementptr inbounds nuw %struct.althost, ptr %44, i32 0, i32 2
  %46 = load i32, ptr %45, align 4, !tbaa !44
  %47 = call ptr @Curl_alpnid2str(i32 noundef %46)
  %48 = load ptr, ptr %9, align 8, !tbaa !17
  %49 = load ptr, ptr %4, align 8, !tbaa !29
  %50 = getelementptr inbounds nuw %struct.altsvc, ptr %49, i32 0, i32 0
  %51 = getelementptr inbounds nuw %struct.althost, ptr %50, i32 0, i32 0
  %52 = load ptr, ptr %51, align 8, !tbaa !32
  %53 = load ptr, ptr %10, align 8, !tbaa !17
  %54 = load ptr, ptr %4, align 8, !tbaa !29
  %55 = getelementptr inbounds nuw %struct.altsvc, ptr %54, i32 0, i32 0
  %56 = getelementptr inbounds nuw %struct.althost, ptr %55, i32 0, i32 1
  %57 = load i16, ptr %56, align 8, !tbaa !45
  %58 = zext i16 %57 to i32
  %59 = load ptr, ptr %4, align 8, !tbaa !29
  %60 = getelementptr inbounds nuw %struct.altsvc, ptr %59, i32 0, i32 1
  %61 = getelementptr inbounds nuw %struct.althost, ptr %60, i32 0, i32 2
  %62 = load i32, ptr %61, align 4, !tbaa !46
  %63 = call ptr @Curl_alpnid2str(i32 noundef %62)
  %64 = load ptr, ptr %7, align 8, !tbaa !17
  %65 = load ptr, ptr %4, align 8, !tbaa !29
  %66 = getelementptr inbounds nuw %struct.altsvc, ptr %65, i32 0, i32 1
  %67 = getelementptr inbounds nuw %struct.althost, ptr %66, i32 0, i32 0
  %68 = load ptr, ptr %67, align 8, !tbaa !39
  %69 = load ptr, ptr %8, align 8, !tbaa !17
  %70 = load ptr, ptr %4, align 8, !tbaa !29
  %71 = getelementptr inbounds nuw %struct.altsvc, ptr %70, i32 0, i32 1
  %72 = getelementptr inbounds nuw %struct.althost, ptr %71, i32 0, i32 1
  %73 = load i16, ptr %72, align 8, !tbaa !47
  %74 = zext i16 %73 to i32
  %75 = getelementptr inbounds nuw %struct.tm, ptr %6, i32 0, i32 5
  %76 = load i32, ptr %75, align 4, !tbaa !48
  %77 = add nsw i32 %76, 1900
  %78 = getelementptr inbounds nuw %struct.tm, ptr %6, i32 0, i32 4
  %79 = load i32, ptr %78, align 8, !tbaa !50
  %80 = add nsw i32 %79, 1
  %81 = getelementptr inbounds nuw %struct.tm, ptr %6, i32 0, i32 3
  %82 = load i32, ptr %81, align 4, !tbaa !51
  %83 = getelementptr inbounds nuw %struct.tm, ptr %6, i32 0, i32 2
  %84 = load i32, ptr %83, align 8, !tbaa !52
  %85 = getelementptr inbounds nuw %struct.tm, ptr %6, i32 0, i32 1
  %86 = load i32, ptr %85, align 4, !tbaa !53
  %87 = getelementptr inbounds nuw %struct.tm, ptr %6, i32 0, i32 0
  %88 = load i32, ptr %87, align 8, !tbaa !54
  %89 = load ptr, ptr %4, align 8, !tbaa !29
  %90 = getelementptr inbounds nuw %struct.altsvc, ptr %89, i32 0, i32 3
  %91 = load i8, ptr %90, align 8, !tbaa !55, !range !56, !noundef !57
  %92 = trunc i8 %91 to i1
  %93 = zext i1 %92 to i32
  %94 = load ptr, ptr %4, align 8, !tbaa !29
  %95 = getelementptr inbounds nuw %struct.altsvc, ptr %94, i32 0, i32 4
  %96 = load i32, ptr %95, align 4, !tbaa !58
  %97 = call i32 (ptr, ptr, ...) @curl_mfprintf(ptr noundef %42, ptr noundef @.str.16, ptr noundef %47, ptr noundef %48, ptr noundef %52, ptr noundef %53, i32 noundef %58, ptr noundef %63, ptr noundef %64, ptr noundef %68, ptr noundef %69, i32 noundef %74, i32 noundef %77, i32 noundef %80, i32 noundef %82, i32 noundef %84, i32 noundef %86, i32 noundef %88, i32 noundef %93, i32 noundef %96)
  store i32 0, ptr %3, align 4
  store i32 1, ptr %12, align 4
  br label %98

98:                                               ; preds = %41, %20
  call void @llvm.lifetime.end.p0(i64 4, ptr %11) #7
  call void @llvm.lifetime.end.p0(i64 8, ptr %10) #7
  call void @llvm.lifetime.end.p0(i64 8, ptr %9) #7
  call void @llvm.lifetime.end.p0(i64 8, ptr %8) #7
  call void @llvm.lifetime.end.p0(i64 8, ptr %7) #7
  call void @llvm.lifetime.end.p0(i64 56, ptr %6) #7
  %99 = load i32, ptr %3, align 4
  ret i32 %99
}

; Function Attrs: nounwind uwtable
define hidden i32 @Curl_altsvc_save(ptr noundef %0, ptr noundef %1, ptr noundef %2) #0 {
  %4 = alloca i32, align 4
  %5 = alloca ptr, align 8
  %6 = alloca ptr, align 8
  %7 = alloca ptr, align 8
  %8 = alloca i32, align 4
  %9 = alloca ptr, align 8
  %10 = alloca ptr, align 8
  %11 = alloca i32, align 4
  %12 = alloca ptr, align 8
  %13 = alloca ptr, align 8
  %14 = alloca ptr, align 8
  store ptr %0, ptr %5, align 8, !tbaa !40
  store ptr %1, ptr %6, align 8, !tbaa !9
  store ptr %2, ptr %7, align 8, !tbaa !17
  call void @llvm.lifetime.start.p0(i64 4, ptr %8) #7
  store i32 0, ptr %8, align 4, !tbaa !3
  call void @llvm.lifetime.start.p0(i64 8, ptr %9) #7
  call void @llvm.lifetime.start.p0(i64 8, ptr %10) #7
  store ptr null, ptr %10, align 8, !tbaa !17
  %15 = load ptr, ptr %6, align 8, !tbaa !9
  %16 = icmp ne ptr %15, null
  br i1 %16, label %18, label %17

17:                                               ; preds = %3
  store i32 0, ptr %4, align 4
  store i32 1, ptr %11, align 4
  br label %105

18:                                               ; preds = %3
  %19 = load ptr, ptr %7, align 8, !tbaa !17
  %20 = icmp ne ptr %19, null
  br i1 %20, label %30, label %21

21:                                               ; preds = %18
  %22 = load ptr, ptr %6, align 8, !tbaa !9
  %23 = getelementptr inbounds nuw %struct.altsvcinfo, ptr %22, i32 0, i32 0
  %24 = load ptr, ptr %23, align 8, !tbaa !18
  %25 = icmp ne ptr %24, null
  br i1 %25, label %26, label %30

26:                                               ; preds = %21
  %27 = load ptr, ptr %6, align 8, !tbaa !9
  %28 = getelementptr inbounds nuw %struct.altsvcinfo, ptr %27, i32 0, i32 0
  %29 = load ptr, ptr %28, align 8, !tbaa !18
  store ptr %29, ptr %7, align 8, !tbaa !17
  br label %30

30:                                               ; preds = %26, %21, %18
  %31 = load ptr, ptr %6, align 8, !tbaa !9
  %32 = getelementptr inbounds nuw %struct.altsvcinfo, ptr %31, i32 0, i32 2
  %33 = load i64, ptr %32, align 8, !tbaa !11
  %34 = and i64 %33, 4
  %35 = icmp ne i64 %34, 0
  br i1 %35, label %44, label %36

36:                                               ; preds = %30
  %37 = load ptr, ptr %7, align 8, !tbaa !17
  %38 = icmp ne ptr %37, null
  br i1 %38, label %39, label %44

39:                                               ; preds = %36
  %40 = load ptr, ptr %7, align 8, !tbaa !17
  %41 = getelementptr inbounds i8, ptr %40, i64 0
  %42 = load i8, ptr %41, align 1, !tbaa !21
  %43 = icmp ne i8 %42, 0
  br i1 %43, label %45, label %44

44:                                               ; preds = %39, %36, %30
  store i32 0, ptr %4, align 4
  store i32 1, ptr %11, align 4
  br label %105

45:                                               ; preds = %39
  %46 = load ptr, ptr %5, align 8, !tbaa !40
  %47 = load ptr, ptr %7, align 8, !tbaa !17
  %48 = call i32 @Curl_fopen(ptr noundef %46, ptr noundef %47, ptr noundef %9, ptr noundef %10)
  store i32 %48, ptr %8, align 4, !tbaa !3
  %49 = load i32, ptr %8, align 4, !tbaa !3
  %50 = icmp ne i32 %49, 0
  br i1 %50, label %101, label %51

51:                                               ; preds = %45
  call void @llvm.lifetime.start.p0(i64 8, ptr %12) #7
  call void @llvm.lifetime.start.p0(i64 8, ptr %13) #7
  %52 = load ptr, ptr %9, align 8, !tbaa !19
  %53 = call i32 @fputs(ptr noundef @.str.4, ptr noundef %52)
  %54 = load ptr, ptr %6, align 8, !tbaa !9
  %55 = getelementptr inbounds nuw %struct.altsvcinfo, ptr %54, i32 0, i32 1
  %56 = call ptr @Curl_llist_head(ptr noundef %55)
  store ptr %56, ptr %12, align 8, !tbaa !28
  br label %57

57:                                               ; preds = %75, %51
  %58 = load ptr, ptr %12, align 8, !tbaa !28
  %59 = icmp ne ptr %58, null
  br i1 %59, label %60, label %77

60:                                               ; preds = %57
  call void @llvm.lifetime.start.p0(i64 8, ptr %14) #7
  %61 = load ptr, ptr %12, align 8, !tbaa !28
  %62 = call ptr @Curl_node_elem(ptr noundef %61)
  store ptr %62, ptr %14, align 8, !tbaa !29
  %63 = load ptr, ptr %12, align 8, !tbaa !28
  %64 = call ptr @Curl_node_next(ptr noundef %63)
  store ptr %64, ptr %13, align 8, !tbaa !28
  %65 = load ptr, ptr %14, align 8, !tbaa !29
  %66 = load ptr, ptr %9, align 8, !tbaa !19
  %67 = call i32 @altsvc_out(ptr noundef %65, ptr noundef %66)
  store i32 %67, ptr %8, align 4, !tbaa !3
  %68 = load i32, ptr %8, align 4, !tbaa !3
  %69 = icmp ne i32 %68, 0
  br i1 %69, label %70, label %71

70:                                               ; preds = %60
  store i32 2, ptr %11, align 4
  br label %72

71:                                               ; preds = %60
  store i32 0, ptr %11, align 4
  br label %72

72:                                               ; preds = %71, %70
  call void @llvm.lifetime.end.p0(i64 8, ptr %14) #7
  %73 = load i32, ptr %11, align 4
  switch i32 %73, label %107 [
    i32 0, label %74
    i32 2, label %77
  ]

74:                                               ; preds = %72
  br label %75

75:                                               ; preds = %74
  %76 = load ptr, ptr %13, align 8, !tbaa !28
  store ptr %76, ptr %12, align 8, !tbaa !28
  br label %57, !llvm.loop !42

77:                                               ; preds = %72, %57
  %78 = load ptr, ptr %9, align 8, !tbaa !19
  %79 = call i32 @fclose(ptr noundef %78)
  %80 = load i32, ptr %8, align 4, !tbaa !3
  %81 = icmp ne i32 %80, 0
  br i1 %81, label %91, label %82

82:                                               ; preds = %77
  %83 = load ptr, ptr %10, align 8, !tbaa !17
  %84 = icmp ne ptr %83, null
  br i1 %84, label %85, label %91

85:                                               ; preds = %82
  %86 = load ptr, ptr %10, align 8, !tbaa !17
  %87 = load ptr, ptr %7, align 8, !tbaa !17
  %88 = call i32 @Curl_rename(ptr noundef %86, ptr noundef %87)
  %89 = icmp ne i32 %88, 0
  br i1 %89, label %90, label %91

90:                                               ; preds = %85
  store i32 23, ptr %8, align 4, !tbaa !3
  br label %91

91:                                               ; preds = %90, %85, %82, %77
  %92 = load i32, ptr %8, align 4, !tbaa !3
  %93 = icmp ne i32 %92, 0
  br i1 %93, label %94, label %100

94:                                               ; preds = %91
  %95 = load ptr, ptr %10, align 8, !tbaa !17
  %96 = icmp ne ptr %95, null
  br i1 %96, label %97, label %100

97:                                               ; preds = %94
  %98 = load ptr, ptr %10, align 8, !tbaa !17
  %99 = call i32 @unlink(ptr noundef %98) #7
  br label %100

100:                                              ; preds = %97, %94, %91
  call void @llvm.lifetime.end.p0(i64 8, ptr %13) #7
  call void @llvm.lifetime.end.p0(i64 8, ptr %12) #7
  br label %101

101:                                              ; preds = %100, %45
  %102 = load ptr, ptr @Curl_cfree, align 8, !tbaa !7
  %103 = load ptr, ptr %10, align 8, !tbaa !17
  call void %102(ptr noundef %103)
  %104 = load i32, ptr %8, align 4, !tbaa !3
  store i32 %104, ptr %4, align 4
  store i32 1, ptr %11, align 4
  br label %105

105:                                              ; preds = %101, %44, %17
  call void @llvm.lifetime.end.p0(i64 8, ptr %10) #7
  call void @llvm.lifetime.end.p0(i64 8, ptr %9) #7
  call void @llvm.lifetime.end.p0(i64 4, ptr %8) #7
  %106 = load i32, ptr %4, align 4
  ret i32 %106

107:                                              ; preds = %72
  unreachable
}