; Function Attrs: nounwind uwtable
define hidden i32 @Curl_altsvc_save(ptr noundef %0, ptr noundef %1, ptr noundef %2) local_unnamed_addr #1 {
  %4 = alloca %struct.tm, align 8
  %5 = alloca [16 x i8], align 16
  %6 = alloca ptr, align 8
  %7 = alloca ptr, align 8
  call void @llvm.lifetime.start.p0(i64 8, ptr nonnull %6) #12
  call void @llvm.lifetime.start.p0(i64 8, ptr nonnull %7) #12
  store ptr null, ptr %7, align 8, !tbaa !17
  %.not = icmp eq ptr %1, null
  br i1 %.not, label %94, label %8

8:                                                ; preds = %3
  %.not39 = icmp eq ptr %2, null
  br i1 %.not39, label %9, label %11

9:                                                ; preds = %8
  %10 = load ptr, ptr %1, align 8, !tbaa !13
  br label %11

11:                                               ; preds = %9, %8
  %.027 = phi ptr [ %2, %8 ], [ %10, %9 ]
  %12 = getelementptr inbounds nuw i8, ptr %1, i64 40
  %13 = load i64, ptr %12, align 8, !tbaa !7
  %14 = and i64 %13, 4
  %15 = icmp eq i64 %14, 0
  %16 = icmp ne ptr %.027, null
  %or.cond = and i1 %16, %15
  br i1 %or.cond, label %17, label %94

17:                                               ; preds = %11
  %18 = load i8, ptr %.027, align 1, !tbaa !14
  %.not41 = icmp eq i8 %18, 0
  br i1 %.not41, label %94, label %19

19:                                               ; preds = %17
  %20 = call i32 @Curl_fopen(ptr noundef %0, ptr noundef nonnull %.027, ptr noundef nonnull %6, ptr noundef nonnull %7) #12
  %.not42 = icmp eq i32 %20, 0
  br i1 %.not42, label %21, label %91

21:                                               ; preds = %19
  %22 = load ptr, ptr %6, align 8, !tbaa !37
  %23 = call i64 @fwrite(ptr nonnull @.str.4, i64 117, i64 1, ptr %22)
  %24 = getelementptr inbounds nuw i8, ptr %1, i64 8
  %25 = call ptr @Curl_llist_head(ptr noundef nonnull %24) #12
  %.not4347 = icmp eq ptr %25, null
  br i1 %.not4347, label %.loopexit, label %.lr.ph

.lr.ph:                                           ; preds = %21
  %26 = getelementptr inbounds nuw i8, ptr %4, i64 20
  %27 = getelementptr inbounds nuw i8, ptr %4, i64 16
  %28 = getelementptr inbounds nuw i8, ptr %4, i64 12
  %29 = getelementptr inbounds nuw i8, ptr %4, i64 8
  %30 = getelementptr inbounds nuw i8, ptr %4, i64 4
  br label %31

31:                                               ; preds = %.lr.ph, %altsvc_out.exit
  %.02848 = phi ptr [ %25, %.lr.ph ], [ %33, %altsvc_out.exit ]
  %32 = call ptr @Curl_node_elem(ptr noundef nonnull %.02848) #12
  %33 = call ptr @Curl_node_next(ptr noundef nonnull %.02848) #12
  %34 = load ptr, ptr %6, align 8, !tbaa !37
  call void @llvm.lifetime.start.p0(i64 56, ptr nonnull %4) #12
  %35 = getelementptr inbounds nuw i8, ptr %32, i64 32
  %36 = load i64, ptr %35, align 8, !tbaa !22
  %37 = call i32 @Curl_gmtime(i64 noundef %36, ptr noundef nonnull %4) #12
  %.not.i = icmp eq i32 %37, 0
  br i1 %.not.i, label %38, label %altsvc_out.exit.thread

altsvc_out.exit.thread:                           ; preds = %31
  call void @llvm.lifetime.end.p0(i64 56, ptr nonnull %4) #12
  br label %.loopexit

38:                                               ; preds = %31
  call void @llvm.lifetime.start.p0(i64 16, ptr nonnull %5) #12
  %39 = getelementptr inbounds nuw i8, ptr %32, i64 16
  %40 = load ptr, ptr %39, align 8, !tbaa !35
  %41 = call i32 @inet_pton(i32 noundef 10, ptr noundef %40, ptr noundef nonnull %5) #12
  %42 = icmp eq i32 %41, 1
  %spec.select.i = select i1 %42, ptr @.str.14, ptr @.str.3
  %spec.select23.i = select i1 %42, ptr @.str.15, ptr @.str.3
  %43 = load ptr, ptr %32, align 8, !tbaa !34
  %44 = call i32 @inet_pton(i32 noundef 10, ptr noundef %43, ptr noundef nonnull %5) #12
  %45 = icmp eq i32 %44, 1
  %.019.i = select i1 %45, ptr @.str.14, ptr @.str.3
  %.018.i = select i1 %45, ptr @.str.15, ptr @.str.3
  call void @llvm.lifetime.end.p0(i64 16, ptr nonnull %5) #12
  %46 = getelementptr inbounds nuw i8, ptr %32, i64 12
  %47 = load i32, ptr %46, align 4, !tbaa !39
  switch i32 %47, label %50 [
    i32 8, label %Curl_alpnid2str.exit.i
    i32 16, label %48
    i32 32, label %49
  ]

48:                                               ; preds = %38
  br label %Curl_alpnid2str.exit.i

49:                                               ; preds = %38
  br label %Curl_alpnid2str.exit.i

50:                                               ; preds = %38
  br label %Curl_alpnid2str.exit.i

Curl_alpnid2str.exit.i:                           ; preds = %50, %49, %48, %38
  %.0.i.i = phi ptr [ @.str.3, %50 ], [ @.str.2, %49 ], [ @.str.1, %48 ], [ @.str, %38 ]
  %51 = load ptr, ptr %32, align 8, !tbaa !34
  %52 = getelementptr inbounds nuw i8, ptr %32, i64 8
  %53 = load i16, ptr %52, align 8, !tbaa !40
  %54 = zext i16 %53 to i32
  %55 = getelementptr inbounds nuw i8, ptr %32, i64 28
  %56 = load i32, ptr %55, align 4, !tbaa !41
  switch i32 %56, label %59 [
    i32 8, label %altsvc_out.exit
    i32 16, label %57
    i32 32, label %58
  ]

57:                                               ; preds = %Curl_alpnid2str.exit.i
  br label %altsvc_out.exit

58:                                               ; preds = %Curl_alpnid2str.exit.i
  br label %altsvc_out.exit

59:                                               ; preds = %Curl_alpnid2str.exit.i
  br label %altsvc_out.exit

altsvc_out.exit:                                  ; preds = %Curl_alpnid2str.exit.i, %57, %58, %59
  %.0.i24.i = phi ptr [ @.str.3, %59 ], [ @.str.2, %58 ], [ @.str.1, %57 ], [ @.str, %Curl_alpnid2str.exit.i ]
  %60 = load ptr, ptr %39, align 8, !tbaa !35
  %61 = getelementptr inbounds nuw i8, ptr %32, i64 24
  %62 = load i16, ptr %61, align 8, !tbaa !42
  %63 = zext i16 %62 to i32
  %64 = load i32, ptr %26, align 4, !tbaa !43
  %65 = add nsw i32 %64, 1900
  %66 = load i32, ptr %27, align 8, !tbaa !45
  %67 = add nsw i32 %66, 1
  %68 = load i32, ptr %28, align 4, !tbaa !46
  %69 = load i32, ptr %29, align 8, !tbaa !47
  %70 = load i32, ptr %30, align 4, !tbaa !48
  %71 = load i32, ptr %4, align 8, !tbaa !49
  %72 = getelementptr inbounds nuw i8, ptr %32, i64 40
  %73 = load i8, ptr %72, align 8, !tbaa !31, !range !50, !noundef !51
  %74 = zext nneg i8 %73 to i32
  %75 = getelementptr inbounds nuw i8, ptr %32, i64 44
  %76 = load i32, ptr %75, align 4, !tbaa !30
  %77 = call i32 (ptr, ptr, ...) @curl_mfprintf(ptr noundef %34, ptr noundef nonnull @.str.16, ptr noundef nonnull %.0.i.i, ptr noundef nonnull %.019.i, ptr noundef %51, ptr noundef nonnull %.018.i, i32 noundef %54, ptr noundef nonnull %.0.i24.i, ptr noundef nonnull %spec.select.i, ptr noundef %60, ptr noundef nonnull %spec.select23.i, i32 noundef %63, i32 noundef %65, i32 noundef %67, i32 noundef %68, i32 noundef %69, i32 noundef %70, i32 noundef %71, i32 noundef %74, i32 noundef %76) #12
  call void @llvm.lifetime.end.p0(i64 56, ptr nonnull %4) #12
  %.not43 = icmp eq ptr %33, null
  br i1 %.not43, label %.loopexit, label %31

.loopexit:                                        ; preds = %altsvc_out.exit, %21, %altsvc_out.exit.thread
  %.2 = phi i32 [ %37, %altsvc_out.exit.thread ], [ 0, %21 ], [ 0, %altsvc_out.exit ]
  %78 = load ptr, ptr %6, align 8, !tbaa !37
  %79 = call i32 @fclose(ptr noundef %78)
  %80 = icmp eq i32 %.2, 0
  %81 = load ptr, ptr %7, align 8
  %82 = icmp ne ptr %81, null
  %or.cond3 = select i1 %80, i1 %82, i1 false
  br i1 %or.cond3, label %83, label %85

83:                                               ; preds = %.loopexit
  %84 = call i32 @Curl_rename(ptr noundef nonnull %81, ptr noundef nonnull %.027) #12
  %.not45 = icmp eq i32 %84, 0
  %spec.select46 = select i1 %.not45, i32 0, i32 23
  %.pre = load ptr, ptr %7, align 8
  br label %85

85:                                               ; preds = %83, %.loopexit
  %86 = phi ptr [ %81, %.loopexit ], [ %.pre, %83 ]
  %.3 = phi i32 [ %.2, %.loopexit ], [ %spec.select46, %83 ]
  %87 = icmp ne i32 %.3, 0
  %88 = icmp ne ptr %86, null
  %or.cond5 = select i1 %87, i1 %88, i1 false
  br i1 %or.cond5, label %89, label %91

89:                                               ; preds = %85
  %90 = call i32 @unlink(ptr noundef nonnull %86) #12
  br label %91

91:                                               ; preds = %85, %89, %19
  %.030 = phi i32 [ %20, %19 ], [ %.3, %89 ], [ %.3, %85 ]
  %92 = load ptr, ptr @Curl_cfree, align 8, !tbaa !3
  %93 = load ptr, ptr %7, align 8, !tbaa !17
  call void %92(ptr noundef %93) #12
  br label %94

94:                                               ; preds = %11, %17, %3, %91
  %.0 = phi i32 [ %.030, %91 ], [ 0, %3 ], [ 0, %17 ], [ 0, %11 ]
  call void @llvm.lifetime.end.p0(i64 8, ptr nonnull %7) #12
  call void @llvm.lifetime.end.p0(i64 8, ptr nonnull %6) #12
  ret i32 %.0
}